EXPORTS
    DllMain@12 @1
    SomeFunction @2
    _ZN11MK_Graphics11MK_getpixelEP11SDL_Surfaceii @3
    _ZN11MK_Graphics11MK_putpixelEP11SDL_Surfaceiij @4
    _ZN11MK_Graphics12MK_GreyPixelEj @5
    _ZN11MK_Graphics13MK_BlackPixelEj @6
    _ZN11MK_Graphics13MK_SurfaceRotEP11SDL_Surfacediihj @7
    _ZN11MK_Graphics14MK_PixelsArrayEP11SDL_Surface @8
    _ZN11MK_Graphics14MK_SurfaceZoomEP11SDL_Surfaceff @9
    _ZN11MK_Graphics15MK_HFlipSurfaceEP11SDL_Surface @10
    _ZN11MK_Graphics15MK_VFlipSurfaceEP11SDL_Surface @11
    _ZN11MK_Graphics17MK_ArrayToSurfaceEPjii @12
    _ZN11MK_Graphics18MK_GetSizeRotedGfxEjj @13
    _ZN11MK_Graphics20MK_SetGrayScaleColorEP11SDL_Surfacejh @14
    _ZN11MK_GraphicsC1Ev @15
    _ZN11MK_GraphicsC2Ev @16
    _ZN11MK_GraphicsD0Ev @17
    _ZN11MK_GraphicsD1Ev @18
    _ZN11MK_GraphicsD2Ev @19
    _ZN13MK_Background10ExpoEffectEP11SDL_Surfacehaahh @20
    _ZN13MK_Background10SineEffectEP11SDL_Surfacehdh @21
    _ZN13MK_Background14DrawBackgroundEP11SDL_Surface @22
    _ZN13MK_Background15CreateGfxEffectEjj @23
    _ZN13MK_Background15DeleteGfxEffectEv @24
    _ZN13MK_Background17DrawBackgroundIntEP11SDL_SurfaceS1_ @25
    _ZN13MK_Background22DrawBackgroundParallaxEP11SDL_Surfacesstt @26
    _ZN13MK_Background8MoveLineEP11SDL_Surfaceii @27
    _ZN13MK_BackgroundC1ESsii @28
    _ZN13MK_BackgroundC1ESsjii @29
    _ZN13MK_BackgroundC2ESsii @30
    _ZN13MK_BackgroundC2ESsjii @31
    _ZN13MK_BackgroundD1Ev @32
    _ZN13MK_BackgroundD2Ev @33
    _ZN14MK_Application12CreateWindowEiiij @34
    _ZN14MK_Application13ClearKeyboardEv @35
    _ZN14MK_Application18CheckKeyboardMouseEv @36
    _ZN14MK_Application4QuitEv @37
    _ZN14MK_Application6UpdateEv @38
    _ZN14MK_ApplicationC1Ev @39
    _ZN14MK_ApplicationC2Ev @40
    _ZN14MK_ApplicationD0Ev @41
    _ZN14MK_ApplicationD1Ev @42
    _ZN14MK_ApplicationD2Ev @43
    _ZN7MK_Text11FreeGraphicEv @44
    _ZN7MK_Text7SetTextESs @45
    _ZN7MK_Text8DrawTextEP11SDL_Surface @46
    _ZN7MK_Text8LoadFontESshhhh @47
    _ZN7MK_Text8SetColorEhhh @48
    _ZN7MK_TextC1Ev @49
    _ZN7MK_TextC2Ev @50
    _ZN9MK_Sprite10DrawEffectEP11SDL_Surface @51
    _ZN9MK_Sprite10DrawSpriteEP11SDL_Surfacei @52
    _ZN9MK_Sprite14DrawSpriteAnimEP11SDL_Surfacehhh @53
    _ZN9MK_Sprite15CreateGfxEffectEjj @54
    _ZN9MK_Sprite15DeleteGfxEffectEv @55
    _ZN9MK_Sprite3RotEdiihj @56
    _ZN9MK_Sprite4LoadESs @57
    _ZN9MK_Sprite4LoadESsj @58
    _ZN9MK_Sprite5HFlipEv @59
    _ZN9MK_Sprite5VFlipEv @60
    _ZN9MK_Sprite9SetLayoutEtttt @61
    _ZN9MK_SpriteC1EP11SDL_Surface @62
    _ZN9MK_SpriteC1ESs @63
    _ZN9MK_SpriteC1ESsj @64
    _ZN9MK_SpriteC2EP11SDL_Surface @65
    _ZN9MK_SpriteC2ESs @66
    _ZN9MK_SpriteC2ESsj @67
    _ZN9MK_SpriteD1Ev @68
    _ZN9MK_SpriteD2Ev @69
    _ZTI11MK_Graphics @70 DATA
    _ZTI14MK_Application @71 DATA
    _ZTV11MK_Graphics @72 DATA
    _ZTV14MK_Application @73 DATA
